; Function Attrs: null_pointer_is_valid sspstrong uwtable
define internal i32 @dissect_ansi_637_trans_app(ptr noundef %0, ptr noundef %1, ptr noundef %2, ptr readnone captures(none) %3) #0 {
  %5 = getelementptr inbounds nuw i8, ptr %1, i64 8
  %6 = load ptr, ptr %5, align 8
  tail call void @col_set_str(ptr noundef %6, i32 noundef 35, ptr noundef nonnull @.str.467)
  %7 = load ptr, ptr %5, align 8
  tail call void @col_set_fence(ptr noundef %7, i32 noundef 25)
  %8 = tail call i32 @dissect_ansi_637_trans(ptr noundef %0, ptr noundef %1, ptr noundef %2, ptr poison)
  ret i32 %8
}